; Function Attrs: mustprogress uwtable
define noundef nonnull align 8 dereferenceable(712) ptr @_ZN6icu_7512PluralFormataSERKS0_(ptr noundef nonnull returned align 8 dereferenceable(712) %this, ptr noundef nonnull align 8 dereferenceable(712) %other) local_unnamed_addr #1 align 2 {
entry:
  %status.i = alloca i32, align 4
  %cmp.not = icmp eq ptr %this, %other
  br i1 %cmp.not, label %if.end, label %if.then

if.then:                                          ; preds = %entry
  %locale = getelementptr inbounds i8, ptr %other, i64 328
  %locale2 = getelementptr inbounds i8, ptr %this, i64 328
  %call = tail call noundef nonnull align 8 dereferenceable(217) ptr @_ZN6icu_756LocaleaSERKS0_(ptr noundef nonnull align 8 dereferenceable(217) %locale2, ptr noundef nonnull align 8 dereferenceable(217) %locale)
  %msgPattern = getelementptr inbounds i8, ptr %other, i64 552
  %msgPattern3 = getelementptr inbounds i8, ptr %this, i64 552
  %call4 = tail call noundef nonnull align 8 dereferenceable(127) ptr @_ZN6icu_7514MessagePatternaSERKS0_(ptr noundef nonnull align 8 dereferenceable(127) %msgPattern3, ptr noundef nonnull align 8 dereferenceable(127) %msgPattern)
  %offset = getelementptr inbounds i8, ptr %other, i64 688
  %0 = load double, ptr %offset, align 8
  %offset5 = getelementptr inbounds i8, ptr %this, i64 688
  store double %0, ptr %offset5, align 8
  call void @llvm.lifetime.start.p0(i64 4, ptr nonnull %status.i)
  store i32 0, ptr %status.i, align 4
  %numberFormat.i = getelementptr inbounds i8, ptr %this, i64 680
  %1 = load ptr, ptr %numberFormat.i, align 8
  %cmp.not.i = icmp eq ptr %1, null
  br i1 %cmp.not.i, label %if.end.i, label %delete.notnull.i

delete.notnull.i:                                 ; preds = %if.then
  %vtable.i = load ptr, ptr %1, align 8
  %vfn.i = getelementptr inbounds i8, ptr %vtable.i, i64 8
  %2 = load ptr, ptr %vfn.i, align 8
  tail call void %2(ptr noundef nonnull align 8 dereferenceable(356) %1) #15
  br label %if.end.i

if.end.i:                                         ; preds = %delete.notnull.i, %if.then
  %pluralRules.i = getelementptr inbounds i8, ptr %this, i64 704
  %3 = load ptr, ptr %pluralRules.i, align 8
  %cmp3.not.i = icmp eq ptr %3, null
  br i1 %cmp3.not.i, label %if.end12.i, label %delete.notnull8.i

delete.notnull8.i:                                ; preds = %if.end.i
  %vtable9.i = load ptr, ptr %3, align 8
  %vfn10.i = getelementptr inbounds i8, ptr %vtable9.i, i64 8
  %4 = load ptr, ptr %vfn10.i, align 8
  tail call void %4(ptr noundef nonnull align 8 dereferenceable(28) %3) #15
  br label %if.end12.i

if.end12.i:                                       ; preds = %delete.notnull8.i, %if.end.i
  %numberFormat13.i = getelementptr inbounds i8, ptr %other, i64 680
  %5 = load ptr, ptr %numberFormat13.i, align 8
  %cmp14.i = icmp eq ptr %5, null
  br i1 %cmp14.i, label %if.then15.i, label %if.else.i

if.then15.i:                                      ; preds = %if.end12.i
  %call.i = call noundef ptr @_ZN6icu_7512NumberFormat14createInstanceERKNS_6LocaleER10UErrorCode(ptr noundef nonnull align 8 dereferenceable(217) %locale2, ptr noundef nonnull align 4 dereferenceable(4) %status.i)
  br label %if.end22.i

if.else.i:                                        ; preds = %if.end12.i
  %vtable18.i = load ptr, ptr %5, align 8
  %vfn19.i = getelementptr inbounds i8, ptr %vtable18.i, i64 32
  %6 = load ptr, ptr %vfn19.i, align 8
  %call20.i = tail call noundef ptr %6(ptr noundef nonnull align 8 dereferenceable(356) %5)
  br label %if.end22.i

if.end22.i:                                       ; preds = %if.else.i, %if.then15.i
  %storemerge.i = phi ptr [ %call20.i, %if.else.i ], [ %call.i, %if.then15.i ]
  store ptr %storemerge.i, ptr %numberFormat.i, align 8
  %pluralRules24.i = getelementptr inbounds i8, ptr %other, i64 704
  %7 = load ptr, ptr %pluralRules24.i, align 8
  %cmp25.i = icmp eq ptr %7, null
  br i1 %cmp25.i, label %if.then26.i, label %if.else31.i

if.then26.i:                                      ; preds = %if.end22.i
  %call28.i = call noundef ptr @_ZN6icu_7511PluralRules9forLocaleERKNS_6LocaleER10UErrorCode(ptr noundef nonnull align 8 dereferenceable(217) %locale2, ptr noundef nonnull align 4 dereferenceable(4) %status.i)
  br label %_ZN6icu_7512PluralFormat11copyObjectsERKS0_.exit

if.else31.i:                                      ; preds = %if.end22.i
  %call34.i = call noundef ptr @_ZNK6icu_7511PluralRules5cloneEv(ptr noundef nonnull align 8 dereferenceable(28) %7)
  br label %_ZN6icu_7512PluralFormat11copyObjectsERKS0_.exit

_ZN6icu_7512PluralFormat11copyObjectsERKS0_.exit: ; preds = %if.then26.i, %if.else31.i
  %storemerge7.i = phi ptr [ %call34.i, %if.else31.i ], [ %call28.i, %if.then26.i ]
  store ptr %storemerge7.i, ptr %pluralRules.i, align 8
  call void @llvm.lifetime.end.p0(i64 4, ptr nonnull %status.i)
  br label %if.end

if.end:                                           ; preds = %_ZN6icu_7512PluralFormat11copyObjectsERKS0_.exit, %entry
  ret ptr %this
}